Certificate:
    Data:
        Version: 3 (0x2)
        Serial Number: 4096 (0x1000)
        Signature Algorithm: md5WithRSAEncryption
        Issuer: C=ut, ST=ut, L=ut, O=ut, OU=msd, CN=msdroot/emailAddress=ljzmcs@gmail.com
        Validity
            Not Before: Mar 14 16:57:40 2024 GMT
            Not After : Mar 14 16:57:40 2025 GMT
        Subject: C=ut, ST=ut, O=ut, OU=msd, CN=myclient/emailAddress=ljzmcs@gmail.com
        Subject Public Key Info:
            Public Key Algorithm: rsaEncryption
                Public-Key: (4096 bit)
                Modulus:
                    00:99:ce:fa:0f:c6:ee:65:12:be:cd:44:18:8c:aa:
                    50:8b:94:b2:28:5f:50:55:ba:27:0d:72:94:5e:80:
                    a1:4c:78:0c:83:73:da:52:48:e8:c7:dc:56:d8:2e:
                    56:c2:ff:99:49:0f:50:d1:36:38:27:21:93:a4:bc:
                    0b:95:d5:de:4d:fc:cc:16:52:b4:91:c2:37:d4:af:
                    29:d2:ca:59:77:a7:37:36:c1:ba:72:87:a8:1f:73:
                    02:b6:9f:26:8d:17:3a:22:4f:11:41:78:76:21:09:
                    75:10:71:e7:54:22:df:a5:5c:35:89:20:b8:dd:30:
                    96:9e:7f:96:c0:58:ec:74:e7:87:f9:af:13:b8:79:
                    25:8e:8a:10:a4:c1:67:b8:90:e2:5c:c7:0d:27:a2:
                    30:bb:ef:3e:4b:e3:ce:73:55:0e:d1:93:1c:9a:c0:
                    4e:73:4d:a7:c5:fe:7b:91:b2:1e:8f:7a:de:77:bd:
                    a7:d9:27:93:ea:e6:af:92:45:23:9c:a6:3b:7e:44:
                    23:76:60:d5:31:7d:4e:02:0d:f0:72:38:da:62:58:
                    31:bb:e6:df:be:e9:db:9e:75:02:95:0b:8b:3a:c4:
                    f7:37:00:e8:dc:bd:27:12:db:cb:87:f0:50:12:67:
                    5d:7a:d3:a7:ce:1e:34:62:91:70:c7:91:41:d2:0c:
                    d3:e9:f2:53:0f:89:c1:99:a1:f2:31:62:ea:f2:39:
                    bf:bb:35:69:bb:4b:3d:e1:ec:48:e4:8b:8b:3d:be:
                    47:7b:cb:05:4e:9a:8c:1a:a1:81:a4:65:e2:ad:01:
                    59:b0:e6:67:d1:3c:8c:10:2b:28:8e:70:b9:4a:a3:
                    9d:00:65:34:cc:42:d7:f6:5e:21:b1:f6:3f:3b:a2:
                    ae:01:88:09:09:81:2f:d8:d1:b2:2b:b8:71:b3:34:
                    9f:65:82:d6:7e:1c:2d:e8:68:6a:06:b7:ca:25:7f:
                    33:c8:5b:3c:14:46:97:68:b7:84:61:3c:74:b5:43:
                    1f:4a:fb:4a:65:b8:73:46:67:65:69:22:dc:95:23:
                    b5:c8:5b:ba:60:32:60:49:f3:24:67:8e:a3:61:bc:
                    5d:29:53:cd:e3:3d:a9:ee:7f:c4:cd:33:c4:53:48:
                    69:52:94:99:17:1e:64:61:de:13:92:d5:3f:b3:ff:
                    8c:44:83:6b:62:28:ad:08:3b:1a:4c:fd:10:fd:84:
                    2d:52:27:a5:ba:74:ee:af:8f:a7:99:f7:5d:04:08:
                    eb:10:87:dd:bf:48:b9:95:3a:9b:59:54:d8:23:a4:
                    11:1d:0f:c3:1e:78:3e:93:72:19:df:0d:33:46:0a:
                    c1:ff:b4:e6:90:ed:43:a2:5a:41:79:28:72:81:98:
                    11:97:99
                Exponent: 65537 (0x10001)
        X509v3 extensions:
            X509v3 Basic Constraints: 
                CA:FALSE
            Netscape Comment: 
                OpenSSL Generated Certificate
            X509v3 Subject Key Identifier: 
                79:9C:74:61:61:CB:48:55:40:ED:99:2B:B5:35:DA:F0:17:9F:6D:E1
            X509v3 Authority Key Identifier: 
                keyid:C4:23:CD:40:8F:98:2B:53:4F:D4:04:82:CE:C7:4A:59:48:08:F0:DA
                DirName:/C=ut/ST=ut/L=ut/O=ut/OU=msd/CN=msdroot/emailAddress=ljzmcs@gmail.com
                serial:54:8B:B7:E4:89:40:1E:3C:ED:E6:57:7D:B4:C8:1F:2E:B0:91:B1:24
    Signature Algorithm: md5WithRSAEncryption
    Signature Value:
        3a:ac:e1:18:77:c2:b1:d2:bf:c5:a2:ac:47:64:66:db:52:48:
        8c:35:2f:20:ef:79:8c:18:c1:6c:ee:b6:70:20:1e:65:f5:24:
        22:ab:60:d9:63:86:c8:7d:a7:44:65:5a:5b:5d:af:1b:6c:5d:
        72:68:57:bf:ee:93:48:d9:4f:be:cd:21:06:22:c8:36:49:a7:
        be:4d:48:91:05:ef:6c:84:34:b7:3e:2b:0e:44:d3:2e:98:6e:
        ef:d9:57:94:0a:e4:df:b2:28:9e:91:27:c7:3d:ca:38:84:95:
        9f:c0:b9:e0:a5:d2:05:1b:27:39:b9:26:e9:a9:38:f8:28:91:
        b1:ea:60:db:d1:ca:4a:ca:f1:66:51:70:98:66:b4:2b:9e:95:
        8f:6f:05:b5:5d:d0:2f:d6:53:47:af:f0:5c:3a:b4:ed:fc:69:
        f8:9b:97:00:28:37:90:2a:0f:42:57:78:94:ee:d3:db:12:71:
        b3:77:d2:ea:04:6b:42:04:33:a9:be:5a:70:4f:2e:05:98:9e:
        26:df:ff:ae:99:9b:a6:c1:13:aa:5f:71:72:63:6e:ef:43:19:
        8c:59:98:de:9a:39:80:0e:8f:c9:be:2e:fd:27:9c:07:bf:d7:
        50:be:ff:f2:42:e4:ba:1c:3d:10:1c:56:8e:77:8a:28:05:15:
        5d:32:77:5e:34:ac:94:65:07:d0:74:59:89:cf:fb:00:cc:91:
        87:51:98:41:67:b0:6a:c1:78:ef:3b:a2:6d:a6:45:92:7b:42:
        8b:f1:a7:ca:49:0b:11:bc:f0:8d:d6:42:64:21:29:21:51:dd:
        d7:d9:7d:ee:ff:67:b6:28:f5:b8:2d:01:c3:6f:8e:40:06:a1:
        64:b6:ef:47:65:90:e1:cc:92:4c:36:75:11:b4:6c:1e:90:c6:
        dc:49:b1:b4:fe:46:1a:9e:3c:3d:06:51:41:f9:f0:77:1a:5d:
        ce:55:7a:8d:9a:df:83:c1:80:2c:1e:ef:4e:b0:e6:ad:63:e2:
        e6:38:3f:dc:68:a6:ec:1f:b4:a1:77:61:5a:e4:10:ab:c8:ac:
        d6:3b:d5:98:85:1c:ba:92:3e:7e:27:1b:6b:87:98:35:6a:3d:
        12:1e:dd:dd:ba:76:d7:8c:81:42:9a:42:68:3a:97:91:65:f1:
        fb:a3:ac:f2:0d:11:14:a8:66:57:0d:cb:35:49:c8:08:8c:d3:
        27:36:9c:88:43:f5:5e:6b:51:a5:9b:76:12:13:93:d1:25:41:
        a5:40:9f:70:d1:bd:73:84:39:9b:8e:be:bc:37:67:dc:1d:bb:
        be:0b:68:7b:94:87:6b:65:43:be:ef:ff:67:6a:c9:2c:c4:1b:
        ab:6b:ac:99:16:c0:83:54
-----BEGIN CERTIFICATE-----
MIIGbTCCBFWgAwIBAgICEAAwDQYJKoZIhvcNAQEEBQAwdTELMAkGA1UEBhMCdXQx
CzAJBgNVBAgMAnV0MQswCQYDVQQHDAJ1dDELMAkGA1UECgwCdXQxDDAKBgNVBAsM
A21zZDEQMA4GA1UEAwwHbXNkcm9vdDEfMB0GCSqGSIb3DQEJARYQbGp6bWNzQGdt
YWlsLmNvbTAeFw0yNDAzMTQxNjU3NDBaFw0yNTAzMTQxNjU3NDBaMGkxCzAJBgNV
BAYTAnV0MQswCQYDVQQIDAJ1dDELMAkGA1UECgwCdXQxDDAKBgNVBAsMA21zZDER
MA8GA1UEAwwIbXljbGllbnQxHzAdBgkqhkiG9w0BCQEWEGxqem1jc0BnbWFpbC5j
b20wggIiMA0GCSqGSIb3DQEBAQUAA4ICDwAwggIKAoICAQCZzvoPxu5lEr7NRBiM
qlCLlLIoX1BVuicNcpRegKFMeAyDc9pSSOjH3FbYLlbC/5lJD1DRNjgnIZOkvAuV
1d5N/MwWUrSRwjfUrynSyll3pzc2wbpyh6gfcwK2nyaNFzoiTxFBeHYhCXUQcedU
It+lXDWJILjdMJaef5bAWOx054f5rxO4eSWOihCkwWe4kOJcxw0nojC77z5L485z
VQ7RkxyawE5zTafF/nuRsh6Pet53vafZJ5Pq5q+SRSOcpjt+RCN2YNUxfU4CDfBy
ONpiWDG75t++6duedQKVC4s6xPc3AOjcvScS28uH8FASZ11606fOHjRikXDHkUHS
DNPp8lMPicGZofIxYuryOb+7NWm7Sz3h7Ejki4s9vkd7ywVOmowaoYGkZeKtAVmw
5mfRPIwQKyiOcLlKo50AZTTMQtf2XiGx9j87oq4BiAkJgS/Y0bIruHGzNJ9lgtZ+
HC3oaGoGt8olfzPIWzwURpdot4RhPHS1Qx9K+0pluHNGZ2VpItyVI7XIW7pgMmBJ
8yRnjqNhvF0pU83jPanuf8TNM8RTSGlSlJkXHmRh3hOS1T+z/4xEg2tiKK0IOxpM
/RD9hC1SJ6W6dO6vj6eZ910ECOsQh92/SLmVOptZVNgjpBEdD8MeeD6TchnfDTNG
CsH/tOaQ7UOiWkF5KHKBmBGXmQIDAQABo4IBETCCAQ0wCQYDVR0TBAIwADAsBglg
hkgBhvhCAQ0EHxYdT3BlblNTTCBHZW5lcmF0ZWQgQ2VydGlmaWNhdGUwHQYDVR0O
BBYEFHmcdGFhy0hVQO2ZK7U12vAXn23hMIGyBgNVHSMEgaowgaeAFMQjzUCPmCtT
T9QEgs7HSllICPDaoXmkdzB1MQswCQYDVQQGEwJ1dDELMAkGA1UECAwCdXQxCzAJ
BgNVBAcMAnV0MQswCQYDVQQKDAJ1dDEMMAoGA1UECwwDbXNkMRAwDgYDVQQDDAdt
c2Ryb290MR8wHQYJKoZIhvcNAQkBFhBsanptY3NAZ21haWwuY29tghRUi7fkiUAe
PO3mV320yB8usJGxJDANBgkqhkiG9w0BAQQFAAOCAgEAOqzhGHfCsdK/xaKsR2Rm
21JIjDUvIO95jBjBbO62cCAeZfUkIqtg2WOGyH2nRGVaW12vG2xdcmhXv+6TSNlP
vs0hBiLINkmnvk1IkQXvbIQ0tz4rDkTTLphu79lXlArk37IonpEnxz3KOISVn8C5
4KXSBRsnObkm6ak4+CiRsepg29HKSsrxZlFwmGa0K56Vj28FtV3QL9ZTR6/wXDq0
7fxp+JuXACg3kCoPQld4lO7T2xJxs3fS6gRrQgQzqb5acE8uBZieJt//rpmbpsET
ql9xcmNu70MZjFmY3po5gA6Pyb4u/SecB7/XUL7/8kLkuhw9EBxWjneKKAUVXTJ3
XjSslGUH0HRZic/7AMyRh1GYQWewasF47zuibaZFkntCi/GnykkLEbzwjdZCZCEp
IVHd19l97v9ntij1uC0Bw2+OQAahZLbvR2WQ4cySTDZ1EbRsHpDG3EmxtP5GGp48
PQZRQfnwdxpdzlV6jZrfg8GALB7vTrDmrWPi5jg/3Gim7B+0oXdhWuQQq8is1jvV
mIUcupI+ficba4eYNWo9Eh7d3bp214yBQppCaDqXkWXx+6Os8g0RFKhmVw3LNUnI
CIzTJzaciEP1XmtRpZt2EhOT0SVBpUCfcNG9c4Q5m46+vDdn3B27vgtoe5SHa2VD
vu//Z2rJLMQbq2usmRbAg1Q=
-----END CERTIFICATE-----
