Certificate:
    Data:
        Version: 3 (0x2)
        Serial Number: 4097 (0x1001)
        Signature Algorithm: md5WithRSAEncryption
        Issuer: C=ut, ST=ut, L=ut, O=ut, OU=msd, CN=msdroot/emailAddress=ljzmcs@gmail.com
        Validity
            Not Before: Mar 14 16:58:14 2024 GMT
            Not After : Mar 14 16:58:14 2025 GMT
        Subject: C=ut, ST=ut, O=ut, OU=msd, CN=myserver/emailAddress=ljzmcs@gmail.com
        Subject Public Key Info:
            Public Key Algorithm: rsaEncryption
                Public-Key: (4096 bit)
                Modulus:
                    00:b3:23:40:ad:3f:a6:9c:9c:0f:4c:84:6d:25:c3:
                    30:b2:25:02:6c:de:a4:28:0a:99:9a:97:cf:c0:bb:
                    ed:2f:6b:be:89:60:95:09:99:1b:ca:25:28:e3:c1:
                    97:68:e5:d9:79:52:b3:95:e6:14:8e:df:ad:33:af:
                    94:03:de:3d:6d:9e:53:92:e1:b8:39:e5:ab:eb:09:
                    d8:52:00:34:14:f0:73:ab:5c:bc:c6:2c:07:3e:b6:
                    6f:dc:87:ee:84:0b:4b:8b:fa:a4:59:a7:94:3e:0d:
                    07:13:0f:bd:3a:a0:6c:2c:dc:b0:b5:45:4c:27:eb:
                    3b:74:af:a8:7c:b8:f3:d1:a6:01:10:23:f6:32:92:
                    54:22:94:ac:6d:fa:ef:6e:ae:22:83:77:15:c3:71:
                    c1:02:f5:f0:e1:49:03:bb:d7:35:d3:cd:ac:5b:8b:
                    d2:e4:0b:f6:e5:0a:6a:a5:06:0a:49:ab:74:9f:cc:
                    75:2a:bb:c8:10:0a:f3:01:ff:17:3e:f6:0c:d2:86:
                    58:81:0d:36:af:f3:7b:1a:12:dd:2b:bd:a4:69:d0:
                    f6:06:6e:42:86:dc:48:77:e9:0e:85:a4:be:bb:9f:
                    39:28:b9:5d:47:de:4d:49:46:7d:c2:61:4e:d3:0b:
                    0b:22:d7:97:19:50:25:c8:cf:53:99:a5:7e:19:e4:
                    c7:d9:e9:1d:9d:80:0a:fc:11:ad:ce:1c:04:ae:fd:
                    40:26:09:bc:22:57:96:ec:d5:60:13:3c:17:a3:68:
                    65:e1:1f:d2:a3:ca:1f:a6:3e:ec:47:17:a5:32:46:
                    74:aa:c3:00:26:04:ff:b4:58:46:fd:0a:f0:28:ff:
                    c2:8c:05:53:cb:10:5a:64:d5:d4:c4:fd:1e:2a:7f:
                    32:69:de:c1:48:5c:9f:56:15:8d:6d:81:b3:7a:94:
                    e1:4a:c5:68:3c:be:8e:d9:95:d3:da:eb:44:a3:f4:
                    fb:dc:a8:48:c6:7c:c0:cb:50:c7:92:b8:82:13:f1:
                    d9:8f:62:4b:d5:e2:8e:6e:e6:69:06:ec:0b:b2:63:
                    c8:c4:e6:55:17:b1:8e:28:83:a0:9c:1f:21:97:ee:
                    e8:bd:f7:d7:2c:8b:ae:dc:29:17:34:8f:10:46:6f:
                    47:b4:c8:d2:76:f0:83:9a:5e:93:96:26:9e:1c:56:
                    d1:41:13:b3:47:03:f7:c5:c6:12:12:14:60:b1:7a:
                    03:17:d5:65:fd:7f:33:77:ad:76:97:c5:5c:db:15:
                    86:7d:ec:78:72:2f:14:91:40:9c:82:d5:e3:49:bf:
                    6e:18:b8:f1:1e:40:7e:53:1b:48:26:61:0e:8c:e7:
                    40:d6:fd:01:4b:7f:74:af:23:1a:56:c3:dc:6d:a8:
                    db:a1:a5
                Exponent: 65537 (0x10001)
        X509v3 extensions:
            X509v3 Basic Constraints: 
                CA:FALSE
            Netscape Comment: 
                OpenSSL Generated Certificate
            X509v3 Subject Key Identifier: 
                24:BF:9C:D7:2F:7C:DE:CD:E9:31:FA:06:E0:B0:2B:D9:10:68:D0:B9
            X509v3 Authority Key Identifier: 
                keyid:C4:23:CD:40:8F:98:2B:53:4F:D4:04:82:CE:C7:4A:59:48:08:F0:DA
                DirName:/C=ut/ST=ut/L=ut/O=ut/OU=msd/CN=msdroot/emailAddress=ljzmcs@gmail.com
                serial:54:8B:B7:E4:89:40:1E:3C:ED:E6:57:7D:B4:C8:1F:2E:B0:91:B1:24
    Signature Algorithm: md5WithRSAEncryption
    Signature Value:
        13:47:3e:51:fa:98:6f:6b:58:4b:b9:f1:2d:f6:0e:88:86:5f:
        c8:88:2c:ee:a5:cd:dc:ff:18:7a:70:46:f9:4b:4e:bf:56:25:
        50:53:58:f0:68:45:4e:ce:c5:3f:55:b4:62:cb:30:a9:00:a1:
        ab:13:b2:6e:36:ab:f9:a0:e1:32:1c:4c:fb:e6:ee:ec:f1:3f:
        f8:23:5d:43:c3:23:98:93:75:5e:91:b0:22:22:f5:14:f3:fa:
        57:97:b4:2a:b5:c6:36:f2:39:c7:21:5d:f7:3b:1f:52:40:48:
        9b:01:27:39:72:b3:3a:74:22:cc:13:af:c2:54:d6:96:a0:3b:
        e2:b2:48:88:89:81:c3:9e:52:d9:76:d7:d5:41:ad:7d:c2:c0:
        f3:f5:4d:72:24:c3:4c:c1:02:e7:64:29:4b:5d:d2:ff:b8:ce:
        c2:ff:f5:bd:dc:23:ae:a2:f3:29:81:9d:ed:f6:b5:17:85:cd:
        3f:5b:ea:bd:25:8e:fc:5b:62:6a:36:86:66:12:70:aa:c9:c0:
        df:5b:f9:b8:b1:cb:a3:3a:c6:c2:fa:4c:22:33:07:9c:32:be:
        54:7e:5d:b5:f7:e2:ca:61:02:13:38:3c:5a:c9:96:79:f7:8d:
        cf:e2:32:68:ee:7b:76:59:40:25:4c:9b:3e:3a:a4:bb:8a:c9:
        d5:98:e6:75:73:e8:c0:9a:54:90:24:18:e0:47:af:89:ac:df:
        a8:55:dd:3f:86:82:b6:57:d4:29:32:9d:a8:70:df:fa:b9:da:
        61:62:37:a6:a5:6a:2a:2a:72:a3:46:48:3b:84:d8:db:dd:6f:
        40:7c:71:cc:52:ac:07:52:21:dc:f5:6b:38:da:53:ef:4d:e8:
        e6:f1:26:5e:c4:18:35:ab:bc:e0:39:0b:3c:96:8d:40:be:f3:
        a8:70:03:72:16:91:70:7e:e5:86:91:3b:25:21:c8:1f:30:b5:
        48:61:c5:49:9f:01:19:78:4f:63:b5:18:2e:c8:39:3a:ca:73:
        2c:18:76:56:11:b8:de:b5:f7:e5:2b:7a:db:82:37:63:f7:f2:
        37:37:6e:d8:f4:d3:1b:c5:3e:49:d5:47:e6:bb:ec:7b:b5:56:
        d7:f2:73:74:53:f9:2c:10:9d:2d:7f:68:8a:7c:0f:ec:bc:2a:
        15:c1:04:05:67:83:db:22:8c:24:e6:77:fa:72:e3:2e:13:ad:
        e0:5e:0d:ef:59:56:d8:ac:69:ad:ca:90:a1:f0:b0:df:6d:5a:
        39:24:07:69:36:54:48:1f:cf:b3:ae:ba:4b:c8:da:ee:ff:8e:
        e3:f3:84:7e:ee:f4:7a:e6:80:ed:77:21:3f:ff:1b:02:02:0b:
        05:92:83:6b:b3:38:e6:ac
-----BEGIN CERTIFICATE-----
MIIGbTCCBFWgAwIBAgICEAEwDQYJKoZIhvcNAQEEBQAwdTELMAkGA1UEBhMCdXQx
CzAJBgNVBAgMAnV0MQswCQYDVQQHDAJ1dDELMAkGA1UECgwCdXQxDDAKBgNVBAsM
A21zZDEQMA4GA1UEAwwHbXNkcm9vdDEfMB0GCSqGSIb3DQEJARYQbGp6bWNzQGdt
YWlsLmNvbTAeFw0yNDAzMTQxNjU4MTRaFw0yNTAzMTQxNjU4MTRaMGkxCzAJBgNV
BAYTAnV0MQswCQYDVQQIDAJ1dDELMAkGA1UECgwCdXQxDDAKBgNVBAsMA21zZDER
MA8GA1UEAwwIbXlzZXJ2ZXIxHzAdBgkqhkiG9w0BCQEWEGxqem1jc0BnbWFpbC5j
b20wggIiMA0GCSqGSIb3DQEBAQUAA4ICDwAwggIKAoICAQCzI0CtP6acnA9MhG0l
wzCyJQJs3qQoCpmal8/Au+0va76JYJUJmRvKJSjjwZdo5dl5UrOV5hSO360zr5QD
3j1tnlOS4bg55avrCdhSADQU8HOrXLzGLAc+tm/ch+6EC0uL+qRZp5Q+DQcTD706
oGws3LC1RUwn6zt0r6h8uPPRpgEQI/YyklQilKxt+u9uriKDdxXDccEC9fDhSQO7
1zXTzaxbi9LkC/blCmqlBgpJq3SfzHUqu8gQCvMB/xc+9gzShliBDTav83saEt0r
vaRp0PYGbkKG3Eh36Q6FpL67nzkouV1H3k1JRn3CYU7TCwsi15cZUCXIz1OZpX4Z
5MfZ6R2dgAr8Ea3OHASu/UAmCbwiV5bs1WATPBejaGXhH9Kjyh+mPuxHF6UyRnSq
wwAmBP+0WEb9CvAo/8KMBVPLEFpk1dTE/R4qfzJp3sFIXJ9WFY1tgbN6lOFKxWg8
vo7ZldPa60Sj9PvcqEjGfMDLUMeSuIIT8dmPYkvV4o5u5mkG7AuyY8jE5lUXsY4o
g6CcHyGX7ui999csi67cKRc0jxBGb0e0yNJ28IOaXpOWJp4cVtFBE7NHA/fFxhIS
FGCxegMX1WX9fzN3rXaXxVzbFYZ97HhyLxSRQJyC1eNJv24YuPEeQH5TG0gmYQ6M
50DW/QFLf3SvIxpWw9xtqNuhpQIDAQABo4IBETCCAQ0wCQYDVR0TBAIwADAsBglg
hkgBhvhCAQ0EHxYdT3BlblNTTCBHZW5lcmF0ZWQgQ2VydGlmaWNhdGUwHQYDVR0O
BBYEFCS/nNcvfN7N6TH6BuCwK9kQaNC5MIGyBgNVHSMEgaowgaeAFMQjzUCPmCtT
T9QEgs7HSllICPDaoXmkdzB1MQswCQYDVQQGEwJ1dDELMAkGA1UECAwCdXQxCzAJ
BgNVBAcMAnV0MQswCQYDVQQKDAJ1dDEMMAoGA1UECwwDbXNkMRAwDgYDVQQDDAdt
c2Ryb290MR8wHQYJKoZIhvcNAQkBFhBsanptY3NAZ21haWwuY29tghRUi7fkiUAe
PO3mV320yB8usJGxJDANBgkqhkiG9w0BAQQFAAOCAgEAE0c+UfqYb2tYS7nxLfYO
iIZfyIgs7qXN3P8YenBG+UtOv1YlUFNY8GhFTs7FP1W0YsswqQChqxOybjar+aDh
MhxM++bu7PE/+CNdQ8MjmJN1XpGwIiL1FPP6V5e0KrXGNvI5xyFd9zsfUkBImwEn
OXKzOnQizBOvwlTWlqA74rJIiImBw55S2XbX1UGtfcLA8/VNciTDTMEC52QpS13S
/7jOwv/1vdwjrqLzKYGd7fa1F4XNP1vqvSWO/FtiajaGZhJwqsnA31v5uLHLozrG
wvpMIjMHnDK+VH5dtffiymECEzg8WsmWefeNz+IyaO57dllAJUybPjqku4rJ1Zjm
dXPowJpUkCQY4EeviazfqFXdP4aCtlfUKTKdqHDf+rnaYWI3pqVqKipyo0ZIO4TY
291vQHxxzFKsB1Ih3PVrONpT703o5vEmXsQYNau84DkLPJaNQL7zqHADchaRcH7l
hpE7JSHIHzC1SGHFSZ8BGXhPY7UYLsg5OspzLBh2VhG43rX35St624I3Y/fyNzdu
2PTTG8U+SdVH5rvse7VW1/JzdFP5LBCdLX9oinwP7LwqFcEEBWeD2yKMJOZ3+nLj
LhOt4F4N71lW2KxprcqQofCw321aOSQHaTZUSB/Ps666S8ja7v+O4/OEfu70euaA
7XchP/8bAgILBZKDa7M45qw=
-----END CERTIFICATE-----
